; Function Attrs: null_pointer_is_valid sspstrong uwtable
define internal i32 @dissect_ansi_tcap_T_invoke_parameter(i1 zeroext %0, ptr noundef %1, i32 noundef %2, ptr noundef readonly captures(none) %3, ptr noundef %4, i32 %5) #0 {
  %7 = tail call fastcc zeroext i1 @find_tcap_subdissector(ptr noundef %1, ptr noundef %3, ptr noundef %4)
  br i1 %7, label %8, label %10

8:                                                ; preds = %6
  %9 = tail call i32 @tvb_reported_length(ptr noundef %1)
  br label %10

10:                                               ; preds = %8, %6
  %.0 = phi i32 [ %9, %8 ], [ %2, %6 ]
  ret i32 %.0
}